target datalayout = "e-m:e-p270:32:32-p271:32:32-p272:64:64-i64:64-i128:128-f80:128-n8:16:32:64-S128"
target triple = "x86_64-pc-linux-gnu"

; Function Attrs: mustprogress nounwind uwtable
define noundef i32 @_ZN7glslang13TIntermediate18getMemberAlignmentERKNS_5TTypeERiS4_NS_14TLayoutPackingEb(ptr noundef nonnull align 8 dereferenceable(152) %0, ptr noundef nonnull align 4 dereferenceable(4) %1, ptr noundef nonnull align 4 dereferenceable(4) %2, i32 noundef %3, i1 noundef zeroext %4) #0 align 2 {
  %6 = alloca i32, align 4
  %7 = alloca ptr, align 8
  %8 = alloca ptr, align 8
  %9 = alloca ptr, align 8
  %10 = alloca i32, align 4
  %11 = alloca i8, align 1
  store ptr %0, ptr %7, align 8
  store ptr %1, ptr %8, align 8
  store ptr %2, ptr %9, align 8
  store i32 %3, ptr %10, align 4
  %12 = zext i1 %4 to i8
  store i8 %12, ptr %11, align 1
  %13 = load i32, ptr %10, align 4
  %14 = icmp eq i32 %13, 5
  br i1 %14, label %15, label %22

15:                                               ; preds = %5
  %16 = load ptr, ptr %7, align 8
  %17 = load ptr, ptr %8, align 8
  %18 = load ptr, ptr %9, align 8
  %19 = load i8, ptr %11, align 1
  %20 = trunc i8 %19 to i1
  %21 = call noundef i32 @_ZN7glslang13TIntermediate18getScalarAlignmentERKNS_5TTypeERiS4_b(ptr noundef nonnull align 8 dereferenceable(152) %16, ptr noundef nonnull align 4 dereferenceable(4) %17, ptr noundef nonnull align 4 dereferenceable(4) %18, i1 noundef zeroext %20)
  store i32 %21, ptr %6, align 4
  br label %30

22:                                               ; preds = %5
  %23 = load ptr, ptr %7, align 8
  %24 = load ptr, ptr %8, align 8
  %25 = load ptr, ptr %9, align 8
  %26 = load i32, ptr %10, align 4
  %27 = load i8, ptr %11, align 1
  %28 = trunc i8 %27 to i1
  %29 = call noundef i32 @_ZN7glslang13TIntermediate16getBaseAlignmentERKNS_5TTypeERiS4_NS_14TLayoutPackingEb(ptr noundef nonnull align 8 dereferenceable(152) %23, ptr noundef nonnull align 4 dereferenceable(4) %24, ptr noundef nonnull align 4 dereferenceable(4) %25, i32 noundef %26, i1 noundef zeroext %28)
  store i32 %29, ptr %6, align 4
  br label %30

30:                                               ; preds = %22, %15
  %31 = load i32, ptr %6, align 4
  ret i32 %31
}