; Function Attrs: mustprogress nounwind uwtable
define noundef i32 @_ZN7glslang13TIntermediate18getMemberAlignmentERKNS_5TTypeERiS4_NS_14TLayoutPackingEb(ptr noundef nonnull align 8 dereferenceable(152) %0, ptr noundef nonnull align 4 dereferenceable(4) %1, ptr nocapture noundef nonnull align 4 dereferenceable(4) %2, i32 noundef %3, i1 noundef zeroext %4) local_unnamed_addr #0 align 2 {
  %6 = icmp eq i32 %3, 5
  br i1 %6, label %7, label %9

7:                                                ; preds = %5
  %8 = tail call noundef i32 @_ZN7glslang13TIntermediate18getScalarAlignmentERKNS_5TTypeERiS4_b(ptr noundef nonnull align 8 dereferenceable(152) %0, ptr noundef nonnull align 4 dereferenceable(4) %1, ptr noundef nonnull align 4 dereferenceable(4) %2, i1 noundef zeroext %4)
  br label %11

9:                                                ; preds = %5
  %10 = tail call noundef i32 @_ZN7glslang13TIntermediate16getBaseAlignmentERKNS_5TTypeERiS4_NS_14TLayoutPackingEb(ptr noundef nonnull align 8 dereferenceable(152) %0, ptr noundef nonnull align 4 dereferenceable(4) %1, ptr noundef nonnull align 4 dereferenceable(4) %2, i32 noundef %3, i1 noundef zeroext %4)
  br label %11

11:                                               ; preds = %9, %7
  %.0 = phi i32 [ %8, %7 ], [ %10, %9 ]
  ret i32 %.0
}